; Function Attrs: mustprogress nofree norecurse nosync nounwind willreturn memory(argmem: write) uwtable
define dso_local void @_ZN14ManifestParserC2EP5StateP10FileReader21ManifestParserOptions(ptr nocapture noundef nonnull writeonly align 8 dereferenceable(85) %0, ptr noundef %1, ptr noundef %2, i32 %3) unnamed_addr #0 align 2 {
  %5 = getelementptr inbounds i8, ptr %0, i64 8
  store ptr %1, ptr %5, align 8
  %6 = getelementptr inbounds i8, ptr %0, i64 16
  store ptr %2, ptr %6, align 8
  %7 = getelementptr inbounds i8, ptr %0, i64 24
  tail call void @llvm.memset.p0.i64(ptr noundef nonnull align 8 dereferenceable(32) %7, i8 0, i64 32, i1 false)
  store ptr getelementptr inbounds ({ [3 x ptr] }, ptr @_ZTV14ManifestParser, i64 0, i32 0, i64 2), ptr %0, align 8
  %8 = getelementptr inbounds i8, ptr %0, i64 80
  store i32 %3, ptr %8, align 8
  %9 = getelementptr inbounds i8, ptr %0, i64 84
  store i8 0, ptr %9, align 4
  %10 = getelementptr inbounds i8, ptr %1, i64 128
  %11 = getelementptr inbounds i8, ptr %0, i64 72
  store ptr %10, ptr %11, align 8
  ret void
}